; Function Attrs: mustprogress uwtable
define void @ulist_close_keyword_values_iterator_77(ptr noundef %0) local_unnamed_addr #0 {
  %.not = icmp eq ptr %0, null
  br i1 %.not, label %15, label %2

2:                                                ; preds = %1
  %3 = getelementptr inbounds nuw i8, ptr %0, i64 8
  %4 = load ptr, ptr %3, align 8, !tbaa !25
  %.not.i = icmp eq ptr %4, null
  br i1 %.not.i, label %ulist_deleteList_77.exit, label %5

5:                                                ; preds = %2
  %6 = getelementptr inbounds nuw i8, ptr %4, i64 8
  %7 = load ptr, ptr %6, align 8, !tbaa !15
  %.not1012.i = icmp eq ptr %7, null
  br i1 %.not1012.i, label %._crit_edge.i, label %.lr.ph.i

.lr.ph.i:                                         ; preds = %5, %14
  %.013.i = phi ptr [ %9, %14 ], [ %7, %5 ]
  %8 = getelementptr inbounds nuw i8, ptr %.013.i, i64 8
  %9 = load ptr, ptr %8, align 8, !tbaa !17
  %10 = getelementptr inbounds nuw i8, ptr %.013.i, i64 24
  %11 = load i8, ptr %10, align 8, !tbaa !11
  %.not11.i = icmp eq i8 %11, 0
  br i1 %.not11.i, label %14, label %12

12:                                               ; preds = %.lr.ph.i
  %13 = load ptr, ptr %.013.i, align 8, !tbaa !7
  tail call void @uprv_free_77(ptr noundef %13)
  br label %14

14:                                               ; preds = %12, %.lr.ph.i
  tail call void @uprv_free_77(ptr noundef nonnull %.013.i)
  %.not10.i = icmp eq ptr %9, null
  br i1 %.not10.i, label %._crit_edge.i, label %.lr.ph.i, !llvm.loop !24

._crit_edge.i:                                    ; preds = %14, %5
  tail call void @uprv_free_77(ptr noundef nonnull %4)
  br label %ulist_deleteList_77.exit

ulist_deleteList_77.exit:                         ; preds = %2, %._crit_edge.i
  tail call void @uprv_free_77(ptr noundef nonnull %0)
  br label %15

15:                                               ; preds = %ulist_deleteList_77.exit, %1
  ret void
}